; Function Attrs: cold nounwind optsize uwtable
define internal range(i32 -1163346256, 1) i32 @ra288_decode_init(ptr noundef %0) #0 {
  %2 = getelementptr inbounds nuw i8, ptr %0, i64 32
  %3 = load ptr, ptr %2, align 8, !tbaa !4
  %4 = getelementptr inbounds nuw i8, ptr %0, i64 352
  tail call void @av_channel_layout_uninit(ptr noundef nonnull %4) #7
  store i32 1, ptr %4, align 8, !tbaa !27
  %.sroa.2.0..sroa_idx = getelementptr inbounds nuw i8, ptr %0, i64 356
  store i32 1, ptr %.sroa.2.0..sroa_idx, align 4, !tbaa !27
  %.sroa.3.0..sroa_idx = getelementptr inbounds nuw i8, ptr %0, i64 360
  store i64 4, ptr %.sroa.3.0..sroa_idx, align 8, !tbaa !28
  %.sroa.4.0..sroa_idx = getelementptr inbounds nuw i8, ptr %0, i64 368
  store ptr null, ptr %.sroa.4.0..sroa_idx, align 8, !tbaa !29
  %5 = getelementptr inbounds nuw i8, ptr %0, i64 348
  store i32 3, ptr %5, align 4, !tbaa !30
  %6 = getelementptr inbounds nuw i8, ptr %0, i64 380
  %7 = load i32, ptr %6, align 4, !tbaa !31
  %.not = icmp eq i32 %7, 38
  br i1 %.not, label %9, label %8

8:                                                ; preds = %1
  tail call void (ptr, i32, ptr, ...) @av_log(ptr noundef nonnull %0, i32 noundef 16, ptr noundef nonnull @.str.2) #7
  br label %16

9:                                                ; preds = %1
  %10 = getelementptr inbounds nuw i8, ptr %0, i64 64
  %11 = load i32, ptr %10, align 8, !tbaa !32
  %12 = and i32 %11, 8388608
  %13 = tail call ptr @avpriv_float_dsp_alloc(i32 noundef %12) #7
  %.not12 = icmp eq ptr %13, null
  br i1 %.not12, label %16, label %14

14:                                               ; preds = %9
  %15 = load ptr, ptr %13, align 8, !tbaa !33
  store ptr %15, ptr %3, align 16, !tbaa !35
  tail call void @av_free(ptr noundef nonnull %13) #7
  br label %16

16:                                               ; preds = %9, %14, %8
  %.0 = phi i32 [ -1163346256, %8 ], [ 0, %14 ], [ -12, %9 ]
  ret i32 %.0
}